target datalayout = "e-m:e-p270:32:32-p271:32:32-p272:64:64-i64:64-i128:128-f80:128-n8:16:32:64-S128"
target triple = "x86_64-pc-linux-gnu"

%"class.std::tuple" = type { %"struct.std::_Tuple_impl.base", [4 x i8] }
%"struct.std::_Tuple_impl.base" = type <{ %"struct.std::_Tuple_impl.0", %"struct.std::_Head_base.3" }>
%"struct.std::_Tuple_impl.0" = type { %"struct.std::_Tuple_impl.1", %"struct.std::_Head_base.2" }
%"struct.std::_Tuple_impl.1" = type { %"struct.std::_Head_base" }
%"struct.std::_Head_base" = type { i32 }
%"struct.std::_Head_base.2" = type { ptr }
%"struct.std::_Head_base.3" = type { i32 }

@_ZN12_GLOBAL__N_111tls_recordsE = internal thread_local global ptr null, align 8

; Function Attrs: mustprogress nounwind uwtable
define linkonce_odr dso_local void @_ZNSt10_Head_baseILm2EN4absl13base_internal10ObjectKindELb0EEC2IRS2_EEOT_(ptr noundef nonnull align 4 dereferenceable(4) %0, ptr noundef nonnull align 4 dereferenceable(4) %1) unnamed_addr #7 comdat align 2 {
  %3 = alloca ptr, align 8
  %4 = alloca ptr, align 8
  store ptr %0, ptr %3, align 8, !tbaa !54
  store ptr %1, ptr %4, align 8, !tbaa !4
  %5 = load ptr, ptr %3, align 8
  %6 = getelementptr inbounds nuw %"struct.std::_Head_base", ptr %5, i32 0, i32 0
  %7 = load ptr, ptr %4, align 8, !tbaa !4
  %8 = load i32, ptr %7, align 4, !tbaa !8
  store i32 %8, ptr %6, align 4, !tbaa !56
  ret void
}

; Function Attrs: mustprogress nounwind uwtable
define linkonce_odr dso_local void @_ZNSt10_Head_baseILm1EPKvLb0EEC2IRS1_EEOT_(ptr noundef nonnull align 8 dereferenceable(8) %0, ptr noundef nonnull align 8 dereferenceable(8) %1) unnamed_addr #7 comdat align 2 {
  %3 = alloca ptr, align 8
  %4 = alloca ptr, align 8
  store ptr %0, ptr %3, align 8, !tbaa !50
  store ptr %1, ptr %4, align 8, !tbaa !4
  %5 = load ptr, ptr %3, align 8
  %6 = getelementptr inbounds nuw %"struct.std::_Head_base.2", ptr %5, i32 0, i32 0
  %7 = load ptr, ptr %4, align 8, !tbaa !4
  %8 = load ptr, ptr %7, align 8, !tbaa !4
  store ptr %8, ptr %6, align 8, !tbaa !52
  ret void
}

; Function Attrs: mustprogress uwtable
define linkonce_odr dso_local void @_ZNSt11_Tuple_implILm2EJN4absl13base_internal10ObjectKindEEEC2IRS2_EEOT_(ptr noundef nonnull align 4 dereferenceable(4) %0, ptr noundef nonnull align 4 dereferenceable(4) %1) unnamed_addr #4 comdat align 2 {
  %3 = alloca ptr, align 8
  %4 = alloca ptr, align 8
  store ptr %0, ptr %3, align 8, !tbaa !48
  store ptr %1, ptr %4, align 8, !tbaa !4
  %5 = load ptr, ptr %3, align 8
  %6 = load ptr, ptr %4, align 8, !tbaa !4
  call void @_ZNSt10_Head_baseILm2EN4absl13base_internal10ObjectKindELb0EEC2IRS2_EEOT_(ptr noundef nonnull align 4 dereferenceable(4) %5, ptr noundef nonnull align 4 dereferenceable(4) %6)
  ret void
}

; Function Attrs: mustprogress nounwind uwtable
define internal void @_ZNSt10_Head_baseILm0EN12_GLOBAL__N_18FunctionELb0EEC2IS1_EEOT_(ptr noundef nonnull align 4 dereferenceable(4) %0, ptr noundef nonnull align 4 dereferenceable(4) %1) unnamed_addr #7 align 2 {
  %3 = alloca ptr, align 8
  %4 = alloca ptr, align 8
  store ptr %0, ptr %3, align 8, !tbaa !44
  store ptr %1, ptr %4, align 8, !tbaa !4
  %5 = load ptr, ptr %3, align 8
  %6 = getelementptr inbounds nuw %"struct.std::_Head_base.3", ptr %5, i32 0, i32 0
  %7 = load ptr, ptr %4, align 8, !tbaa !4
  %8 = load i32, ptr %7, align 4, !tbaa !12
  store i32 %8, ptr %6, align 4, !tbaa !46
  ret void
}

; Function Attrs: mustprogress uwtable
define linkonce_odr dso_local void @_ZNSt11_Tuple_implILm1EJPKvN4absl13base_internal10ObjectKindEEEC2IRS1_JRS4_EvEEOT_DpOT0_(ptr noundef nonnull align 8 dereferenceable(16) %0, ptr noundef nonnull align 8 dereferenceable(8) %1, ptr noundef nonnull align 4 dereferenceable(4) %2) unnamed_addr #4 comdat align 2 {
  %4 = alloca ptr, align 8
  %5 = alloca ptr, align 8
  %6 = alloca ptr, align 8
  store ptr %0, ptr %4, align 8, !tbaa !42
  store ptr %1, ptr %5, align 8, !tbaa !4
  store ptr %2, ptr %6, align 8, !tbaa !4
  %7 = load ptr, ptr %4, align 8
  %8 = load ptr, ptr %6, align 8, !tbaa !4
  call void @_ZNSt11_Tuple_implILm2EJN4absl13base_internal10ObjectKindEEEC2IRS2_EEOT_(ptr noundef nonnull align 4 dereferenceable(4) %7, ptr noundef nonnull align 4 dereferenceable(4) %8)
  %9 = getelementptr inbounds i8, ptr %7, i64 8
  %10 = load ptr, ptr %5, align 8, !tbaa !4
  call void @_ZNSt10_Head_baseILm1EPKvLb0EEC2IRS1_EEOT_(ptr noundef nonnull align 8 dereferenceable(8) %9, ptr noundef nonnull align 8 dereferenceable(8) %10)
  ret void
}

; Function Attrs: noinline noreturn nounwind uwtable
define linkonce_odr hidden void @__clang_call_terminate(ptr noundef %0) #12 comdat {
  %2 = call ptr @__cxa_begin_catch(ptr %0) #3
  call void @_ZSt9terminatev() #19
  unreachable
}

; Function Attrs: mustprogress uwtable
define internal void @_ZNSt11_Tuple_implILm0EJN12_GLOBAL__N_18FunctionEPKvN4absl13base_internal10ObjectKindEEEC2IS1_JRS3_RS6_EvEEOT_DpOT0_(ptr noundef nonnull align 8 dereferenceable(20) %0, ptr noundef nonnull align 4 dereferenceable(4) %1, ptr noundef nonnull align 8 dereferenceable(8) %2, ptr noundef nonnull align 4 dereferenceable(4) %3) unnamed_addr #4 align 2 {
  %5 = alloca ptr, align 8
  %6 = alloca ptr, align 8
  %7 = alloca ptr, align 8
  %8 = alloca ptr, align 8
  store ptr %0, ptr %5, align 8, !tbaa !40
  store ptr %1, ptr %6, align 8, !tbaa !4
  store ptr %2, ptr %7, align 8, !tbaa !4
  store ptr %3, ptr %8, align 8, !tbaa !4
  %9 = load ptr, ptr %5, align 8
  %10 = load ptr, ptr %7, align 8, !tbaa !4
  %11 = load ptr, ptr %8, align 8, !tbaa !4
  call void @_ZNSt11_Tuple_implILm1EJPKvN4absl13base_internal10ObjectKindEEEC2IRS1_JRS4_EvEEOT_DpOT0_(ptr noundef nonnull align 8 dereferenceable(16) %9, ptr noundef nonnull align 8 dereferenceable(8) %10, ptr noundef nonnull align 4 dereferenceable(4) %11)
  %12 = getelementptr inbounds i8, ptr %9, i64 16
  %13 = load ptr, ptr %6, align 8, !tbaa !4
  call void @_ZNSt10_Head_baseILm0EN12_GLOBAL__N_18FunctionELb0EEC2IS1_EEOT_(ptr noundef nonnull align 4 dereferenceable(4) %12, ptr noundef nonnull align 4 dereferenceable(4) %13)
  ret void
}

; Function Attrs: mustprogress nounwind uwtable
define internal void @_ZNSt5tupleIJN12_GLOBAL__N_18FunctionEPKvN4absl13base_internal10ObjectKindEEEC2IJS1_RS3_RS6_ELb1ETnNSt9enable_ifIXclsr4_TCCIXT0_EEE29__is_implicitly_constructibleIDpT_EEEbE4typeELb1EEEDpOSC_(ptr noundef nonnull align 8 dereferenceable(20) %0, ptr noundef nonnull align 4 dereferenceable(4) %1, ptr noundef nonnull align 8 dereferenceable(8) %2, ptr noundef nonnull align 4 dereferenceable(4) %3) unnamed_addr #7 align 2 personality ptr @__gxx_personality_v0 {
  %5 = alloca ptr, align 8
  %6 = alloca ptr, align 8
  %7 = alloca ptr, align 8
  %8 = alloca ptr, align 8
  store ptr %0, ptr %5, align 8, !tbaa !13
  store ptr %1, ptr %6, align 8, !tbaa !4
  store ptr %2, ptr %7, align 8, !tbaa !4
  store ptr %3, ptr %8, align 8, !tbaa !4
  %9 = load ptr, ptr %5, align 8
  %10 = load ptr, ptr %6, align 8, !tbaa !4
  %11 = load ptr, ptr %7, align 8, !tbaa !4
  %12 = load ptr, ptr %8, align 8, !tbaa !4
  invoke void @_ZNSt11_Tuple_implILm0EJN12_GLOBAL__N_18FunctionEPKvN4absl13base_internal10ObjectKindEEEC2IS1_JRS3_RS6_EvEEOT_DpOT0_(ptr noundef nonnull align 8 dereferenceable(20) %9, ptr noundef nonnull align 4 dereferenceable(4) %10, ptr noundef nonnull align 8 dereferenceable(8) %11, ptr noundef nonnull align 4 dereferenceable(4) %12)
          to label %13 unwind label %14

13:                                               ; preds = %4
  ret void

14:                                               ; preds = %4
  %15 = landingpad { ptr, i32 }
          catch ptr null
  %16 = extractvalue { ptr, i32 } %15, 0
  call void @__clang_call_terminate(ptr %16) #19
  unreachable
}

; Function Attrs: mustprogress uwtable
define dso_local void @AbslInternalTraceSignal(ptr noundef %0, i32 noundef %1) #4 {
  %3 = alloca ptr, align 8
  %4 = alloca i32, align 4
  %5 = alloca %"class.std::tuple", align 8
  %6 = alloca i32, align 4
  store ptr %0, ptr %3, align 8, !tbaa !4
  store i32 %1, ptr %4, align 4, !tbaa !8
  %7 = call align 8 ptr @llvm.threadlocal.address.p0(ptr align 8 @_ZN12_GLOBAL__N_111tls_recordsE)
  %8 = load ptr, ptr %7, align 8, !tbaa !10
  %9 = icmp ne ptr %8, null
  br i1 %9, label %10, label %13

10:                                               ; preds = %2
  %11 = call align 8 ptr @llvm.threadlocal.address.p0(ptr align 8 @_ZN12_GLOBAL__N_111tls_recordsE)
  %12 = load ptr, ptr %11, align 8, !tbaa !10
  call void @llvm.lifetime.start.p0(i64 24, ptr %5) #3
  call void @llvm.lifetime.start.p0(i64 4, ptr %6) #3
  store i32 2, ptr %6, align 4, !tbaa !12
  call void @_ZNSt5tupleIJN12_GLOBAL__N_18FunctionEPKvN4absl13base_internal10ObjectKindEEEC2IJS1_RS3_RS6_ELb1ETnNSt9enable_ifIXclsr4_TCCIXT0_EEE29__is_implicitly_constructibleIDpT_EEEbE4typeELb1EEEDpOSC_(ptr noundef nonnull align 8 dereferenceable(20) %5, ptr noundef nonnull align 4 dereferenceable(4) %6, ptr noundef nonnull align 8 dereferenceable(8) %3, ptr noundef nonnull align 4 dereferenceable(4) %4) #3
  call void @_ZNSt6vectorISt5tupleIJN12_GLOBAL__N_18FunctionEPKvN4absl13base_internal10ObjectKindEEESaIS8_EE9push_backEOS8_(ptr noundef nonnull align 8 dereferenceable(24) %12, ptr noundef nonnull align 8 dereferenceable(20) %5)
  call void @llvm.lifetime.end.p0(i64 4, ptr %6) #3
  call void @llvm.lifetime.end.p0(i64 24, ptr %5) #3
  br label %13

13:                                               ; preds = %10, %2
  ret void
}